(dp0
S'1.425'
p1
F0.63256555996671282
sS'0.825'
p2
F0.63256555996671282
sS'0.45'
p3
F0.44999999999999929
sS'1.15'
p4
F0.63256555996671282
sS'1.85'
p5
F0.63256555996671282
sS'1.8'
p6
F0.63256555996671282
sS'0.225'
p7
F0.30009508873855134
sS'1.125'
p8
F0.63256555996671282
sS'0.55'
p9
F0.54999999999998295
sS'1.05'
p10
F0.63256555996671282
sS'0.625'
p11
F0.625
sS'1.875'
p12
F0.63256555996671282
sS'0.425'
p13
F0.42499999999999716
sS'1.925'
p14
F0.63256555996671282
sS'0.125'
p15
F0.29413048515412327
sS'1.325'
p16
F0.63256555996671282
sS'0.725'
p17
F0.63256555996671282
sS'2.0'
p18
F0.63256555996671282
sS'1.95'
p19
F0.63256555996671282
sS'1.725'
p20
F0.63256555996671282
sS'0.25'
p21
F0.30009508873855134
sS'1.525'
p22
F0.63256555996671282
sS'0.021'
p23
F0.062999999999999723
sS'1.75'
p24
F0.63256555996671282
sS'0.023'
p25
F0.06899999999999995
sS'0.022'
p26
F0.065999999999999837
sS'0.025'
p27
F0.074999999999999956
sS'0.024'
p28
F0.072000000000000064
sS'0.975'
p29
F0.63256555996671282
sS'1.025'
p30
F0.63256555996671282
sS'0.325'
p31
F0.32500000000000284
sS'0.95'
p32
F0.63256555996671282
sS'1.4'
p33
F0.63256555996671282
sS'0.35'
p34
F0.35000000000000142
sS'0.525'
p35
F0.52499999999999147
sS'1.65'
p36
F0.63256555996671282
sS'1.5'
p37
F0.63256555996671282
sS'0.925'
p38
F0.63256555996671282
sS'1.225'
p39
F0.63256555996671282
sS'1.625'
p40
F0.63256555996671282
sS'0.02'
p41
F0.059999999999999831
sS'0.01'
p42
F0.029999999999999971
sS'0.05'
p43
F0.14999999999999947
sS'0.009'
p44
F0.026999999999999968
sS'0.85'
p45
F0.63256555996671282
sS'0.007'
p46
F0.020999999999999908
sS'0.006'
p47
F0.018000000000000016
sS'0.005'
p48
F0.014999999999999999
sS'0.004'
p49
F0.012000000000000011
sS'0.003'
p50
F0.009000000000000008
sS'0.002'
p51
F0.0060000000000000053
sS'0.001'
p52
F0.0030000000000000027
sS'0.775'
p53
F0.63256555996671282
sS'0.2'
p54
F0.30009508873855134
sS'0.675'
p55
F0.63256555996671282
sS'1.55'
p56
F0.63256555996671282
sS'1.9'
p57
F0.63256555996671282
sS'0.15'
p58
F0.29808688073277978
sS'1.575'
p59
F0.63256555996671282
sS'1.825'
p60
F0.63256555996671282
sS'0.018'
p61
F0.053999999999999826
sS'0.019'
p62
F0.05699999999999994
sS'1.45'
p63
F0.63256555996671282
sS'0.011'
p64
F0.032999999999999918
sS'0.012'
p65
F0.036000000000000032
sS'0.013'
p66
F0.038999999999999924
sS'0.014'
p67
F0.041999999999999815
sS'0.015'
p68
F0.044999999999999929
sS'0.016'
p69
F0.048000000000000043
sS'0.017'
p70
F0.05099999999999999
sS'0.9'
p71
F0.63256555996671282
sS'0.8'
p72
F0.63256555996671282
sS'1.6'
p73
F0.63256555996671282
sS'1.7'
p74
F0.63256555996671282
sS'1.0'
p75
F0.63256555996671282
sS'1.1'
p76
F0.63256555996671282
sS'1.2'
p77
F0.63256555996671282
sS'1.3'
p78
F0.63256555996671282
sS'0.1'
p79
F0.29413048515412327
sS'0.3'
p80
F0.3012522351336166
sS'0.075'
p81
F0.22499999999999787
sS'0.5'
p82
F0.5
sS'0.4'
p83
F0.39999999999999947
sS'0.7'
p84
F0.63256555996671282
sS'0.6'
p85
F0.59999999999999432
sS'0.65'
p86
F0.63256555996671282
sS'1.075'
p87
F0.63256555996671282
sS'0.008'
p88
F0.024000000000000021
sS'1.175'
p89
F0.63256555996671282
sS'0.475'
p90
F0.47499999999999432
sS'0.175'
p91
F0.29808688073277978
sS'1.35'
p92
F0.63256555996671282
sS'0.575'
p93
F0.57499999999998863
sS'1.375'
p94
F0.63256555996671282
sS'1.475'
p95
F0.63256555996671282
sS'1.775'
p96
F0.63256555996671282
sS'0.75'
p97
F0.63256555996671282
sS'1.275'
p98
F0.63256555996671282
sS'0.875'
p99
F0.63256555996671282
sS'1.975'
p100
F0.63256555996671282
sS'1.675'
p101
F0.63256555996671282
sS'0.375'
p102
F0.375
sS'0.275'
p103
F0.30009508873855134
sS'1.25'
p104
F0.63256555996671282
s.